; Function Attrs: mustprogress uwtable
define dso_local void @_ZN10Bookkeeper15output_countersERSoPKcS2_RKSt6vectorIiSaIiEEi(ptr noundef nonnull align 8 dereferenceable(8) %0, ptr noundef %1, ptr noundef %2, ptr noundef nonnull readonly align 8 captures(none) dereferenceable(24) %3, i32 noundef %4) local_unnamed_addr #6 align 2 {
  %6 = getelementptr inbounds nuw i8, ptr %3, i64 8
  %7 = load ptr, ptr %6, align 8, !tbaa !11
  %8 = load ptr, ptr %3, align 8, !tbaa !4
  %.not.i = icmp eq ptr %7, %8
  br i1 %.not.i, label %_Z10calc_totalRKSt6vectorIiSaIiEE.exit, label %.lr.ph.preheader.i

.lr.ph.preheader.i:                               ; preds = %5
  %9 = ptrtoint ptr %7 to i64
  %10 = ptrtoint ptr %8 to i64
  %11 = sub i64 %9, %10
  %12 = ashr exact i64 %11, 2
  %umax.i = tail call i64 @llvm.umax.i64(i64 %12, i64 1)
  br label %.lr.ph.i

.lr.ph.i:                                         ; preds = %.lr.ph.i, %.lr.ph.preheader.i
  %.08.i = phi i32 [ %15, %.lr.ph.i ], [ 0, %.lr.ph.preheader.i ]
  %.067.i = phi i64 [ %16, %.lr.ph.i ], [ 0, %.lr.ph.preheader.i ]
  %13 = getelementptr inbounds nuw i32, ptr %8, i64 %.067.i
  %14 = load i32, ptr %13, align 4, !tbaa !12
  %15 = add nsw i32 %14, %.08.i
  %16 = add nuw i64 %.067.i, 1
  %exitcond.not.i = icmp eq i64 %16, %umax.i
  br i1 %exitcond.not.i, label %_Z10calc_totalRKSt6vectorIiSaIiEE.exit, label %.lr.ph.i, !llvm.loop !137

_Z10calc_totalRKSt6vectorIiSaIiEE.exit:           ; preds = %.lr.ph.i, %5
  %.0.lcssa.i = phi i32 [ 0, %5 ], [ %15, %.lr.ph.i ]
  tail call fastcc void @_ZL15formated_outputRSoPKci(ptr noundef nonnull align 8 dereferenceable(8) %0, ptr noundef %1, i32 noundef %.0.lcssa.i)
  %17 = tail call noundef nonnull align 8 dereferenceable(8) ptr @_ZSt16__ostream_insertIcSt11char_traitsIcEERSt13basic_ostreamIT_T0_ES6_PKS3_l(ptr noundef nonnull align 8 dereferenceable(8) %0, ptr noundef nonnull @.str.10, i64 noundef 10)
  %18 = load ptr, ptr %0, align 8, !tbaa !19
  %19 = getelementptr i8, ptr %18, i64 -24
  %20 = load i64, ptr %19, align 8
  %21 = getelementptr inbounds i8, ptr %0, i64 %20
  %22 = getelementptr inbounds nuw i8, ptr %21, i64 240
  %23 = load ptr, ptr %22, align 8, !tbaa !70
  %.not.i.i.i = icmp eq ptr %23, null
  br i1 %.not.i.i.i, label %24, label %_ZSt13__check_facetISt5ctypeIcEERKT_PS3_.exit.i.i

24:                                               ; preds = %_Z10calc_totalRKSt6vectorIiSaIiEE.exit
  tail call void @_ZSt16__throw_bad_castv() #20
  unreachable

_ZSt13__check_facetISt5ctypeIcEERKT_PS3_.exit.i.i: ; preds = %_Z10calc_totalRKSt6vectorIiSaIiEE.exit
  %25 = getelementptr inbounds nuw i8, ptr %23, i64 56
  %26 = load i8, ptr %25, align 8, !tbaa !85
  %.not.i1.i.i = icmp eq i8 %26, 0
  br i1 %.not.i1.i.i, label %30, label %27

27:                                               ; preds = %_ZSt13__check_facetISt5ctypeIcEERKT_PS3_.exit.i.i
  %28 = getelementptr inbounds nuw i8, ptr %23, i64 67
  %29 = load i8, ptr %28, align 1, !tbaa !90
  br label %_ZSt4endlIcSt11char_traitsIcEERSt13basic_ostreamIT_T0_ES6_.exit

30:                                               ; preds = %_ZSt13__check_facetISt5ctypeIcEERKT_PS3_.exit.i.i
  tail call void @_ZNKSt5ctypeIcE13_M_widen_initEv(ptr noundef nonnull align 8 dereferenceable(570) %23)
  %31 = load ptr, ptr %23, align 8, !tbaa !19
  %32 = getelementptr inbounds nuw i8, ptr %31, i64 48
  %33 = load ptr, ptr %32, align 8
  %34 = tail call noundef signext i8 %33(ptr noundef nonnull align 8 dereferenceable(570) %23, i8 noundef signext 10)
  br label %_ZSt4endlIcSt11char_traitsIcEERSt13basic_ostreamIT_T0_ES6_.exit

_ZSt4endlIcSt11char_traitsIcEERSt13basic_ostreamIT_T0_ES6_.exit: ; preds = %27, %30
  %.0.i.i.i = phi i8 [ %29, %27 ], [ %34, %30 ]
  %35 = tail call noundef nonnull align 8 dereferenceable(8) ptr @_ZNSo3putEc(ptr noundef nonnull align 8 dereferenceable(8) %0, i8 noundef signext %.0.i.i.i)
  %36 = tail call noundef nonnull align 8 dereferenceable(8) ptr @_ZNSo5flushEv(ptr noundef nonnull align 8 dereferenceable(8) %35)
  %37 = sext i32 %4 to i64
  %38 = load ptr, ptr %6, align 8, !tbaa !11
  %39 = load ptr, ptr %3, align 8, !tbaa !4
  %40 = ptrtoint ptr %38 to i64
  %41 = ptrtoint ptr %39 to i64
  %42 = sub i64 %40, %41
  %43 = ashr exact i64 %42, 2
  %44 = icmp ugt i64 %43, %37
  br i1 %44, label %.lr.ph, label %._crit_edge

.lr.ph:                                           ; preds = %_ZSt4endlIcSt11char_traitsIcEERSt13basic_ostreamIT_T0_ES6_.exit
  %.not.i12 = icmp eq ptr %2, null
  br label %45

._crit_edge:                                      ; preds = %_ZSt4endlIcSt11char_traitsIcEERSt13basic_ostreamIT_T0_ES6_.exit17, %_ZSt4endlIcSt11char_traitsIcEERSt13basic_ostreamIT_T0_ES6_.exit
  ret void

45:                                               ; preds = %.lr.ph, %_ZSt4endlIcSt11char_traitsIcEERSt13basic_ostreamIT_T0_ES6_.exit17
  %.018 = phi i64 [ %37, %.lr.ph ], [ %84, %_ZSt4endlIcSt11char_traitsIcEERSt13basic_ostreamIT_T0_ES6_.exit17 ]
  %46 = tail call noundef nonnull align 8 dereferenceable(8) ptr @_ZSt16__ostream_insertIcSt11char_traitsIcEERSt13basic_ostreamIT_T0_ES6_PKS3_l(ptr noundef nonnull align 8 dereferenceable(8) %0, ptr noundef nonnull @.str.60, i64 noundef 3)
  br i1 %.not.i12, label %47, label %55

47:                                               ; preds = %45
  %48 = load ptr, ptr %0, align 8, !tbaa !19
  %49 = getelementptr i8, ptr %48, i64 -24
  %50 = load i64, ptr %49, align 8
  %51 = getelementptr inbounds i8, ptr %0, i64 %50
  %52 = getelementptr inbounds nuw i8, ptr %51, i64 32
  %53 = load i32, ptr %52, align 8, !tbaa !92
  %54 = or i32 %53, 1
  tail call void @_ZNSt9basic_iosIcSt11char_traitsIcEE5clearESt12_Ios_Iostate(ptr noundef nonnull align 8 dereferenceable(264) %51, i32 noundef %54)
  br label %_ZStlsISt11char_traitsIcEERSt13basic_ostreamIcT_ES5_PKc.exit

55:                                               ; preds = %45
  %56 = tail call noundef i64 @strlen(ptr noundef nonnull dereferenceable(1) %2) #19
  %57 = tail call noundef nonnull align 8 dereferenceable(8) ptr @_ZSt16__ostream_insertIcSt11char_traitsIcEERSt13basic_ostreamIT_T0_ES6_PKS3_l(ptr noundef nonnull align 8 dereferenceable(8) %0, ptr noundef nonnull %2, i64 noundef %56)
  br label %_ZStlsISt11char_traitsIcEERSt13basic_ostreamIcT_ES5_PKc.exit

_ZStlsISt11char_traitsIcEERSt13basic_ostreamIcT_ES5_PKc.exit: ; preds = %47, %55
  %58 = tail call noundef nonnull align 8 dereferenceable(8) ptr @_ZSt16__ostream_insertIcSt11char_traitsIcEERSt13basic_ostreamIT_T0_ES6_PKS3_l(ptr noundef nonnull align 8 dereferenceable(8) %0, ptr noundef nonnull @.str.61, i64 noundef 2)
  %59 = tail call noundef nonnull align 8 dereferenceable(8) ptr @_ZNSo9_M_insertImEERSoT_(ptr noundef nonnull align 8 dereferenceable(8) %0, i64 noundef %.018)
  %60 = tail call noundef nonnull align 8 dereferenceable(8) ptr @_ZSt16__ostream_insertIcSt11char_traitsIcEERSt13basic_ostreamIT_T0_ES6_PKS3_l(ptr noundef nonnull align 8 dereferenceable(8) %59, ptr noundef nonnull @.str.12, i64 noundef 14)
  %61 = load ptr, ptr %3, align 8, !tbaa !4
  %62 = getelementptr inbounds nuw i32, ptr %61, i64 %.018
  %63 = load i32, ptr %62, align 4, !tbaa !12
  %64 = tail call noundef nonnull align 8 dereferenceable(8) ptr @_ZNSolsEi(ptr noundef nonnull align 8 dereferenceable(8) %59, i32 noundef %63)
  %65 = load ptr, ptr %64, align 8, !tbaa !19
  %66 = getelementptr i8, ptr %65, i64 -24
  %67 = load i64, ptr %66, align 8
  %68 = getelementptr inbounds i8, ptr %64, i64 %67
  %69 = getelementptr inbounds nuw i8, ptr %68, i64 240
  %70 = load ptr, ptr %69, align 8, !tbaa !70
  %.not.i.i.i13 = icmp eq ptr %70, null
  br i1 %.not.i.i.i13, label %71, label %_ZSt13__check_facetISt5ctypeIcEERKT_PS3_.exit.i.i14

71:                                               ; preds = %_ZStlsISt11char_traitsIcEERSt13basic_ostreamIcT_ES5_PKc.exit
  tail call void @_ZSt16__throw_bad_castv() #20
  unreachable

_ZSt13__check_facetISt5ctypeIcEERKT_PS3_.exit.i.i14: ; preds = %_ZStlsISt11char_traitsIcEERSt13basic_ostreamIcT_ES5_PKc.exit
  %72 = getelementptr inbounds nuw i8, ptr %70, i64 56
  %73 = load i8, ptr %72, align 8, !tbaa !85
  %.not.i1.i.i15 = icmp eq i8 %73, 0
  br i1 %.not.i1.i.i15, label %77, label %74

74:                                               ; preds = %_ZSt13__check_facetISt5ctypeIcEERKT_PS3_.exit.i.i14
  %75 = getelementptr inbounds nuw i8, ptr %70, i64 67
  %76 = load i8, ptr %75, align 1, !tbaa !90
  br label %_ZSt4endlIcSt11char_traitsIcEERSt13basic_ostreamIT_T0_ES6_.exit17

77:                                               ; preds = %_ZSt13__check_facetISt5ctypeIcEERKT_PS3_.exit.i.i14
  tail call void @_ZNKSt5ctypeIcE13_M_widen_initEv(ptr noundef nonnull align 8 dereferenceable(570) %70)
  %78 = load ptr, ptr %70, align 8, !tbaa !19
  %79 = getelementptr inbounds nuw i8, ptr %78, i64 48
  %80 = load ptr, ptr %79, align 8
  %81 = tail call noundef signext i8 %80(ptr noundef nonnull align 8 dereferenceable(570) %70, i8 noundef signext 10)
  br label %_ZSt4endlIcSt11char_traitsIcEERSt13basic_ostreamIT_T0_ES6_.exit17

_ZSt4endlIcSt11char_traitsIcEERSt13basic_ostreamIT_T0_ES6_.exit17: ; preds = %74, %77
  %.0.i.i.i16 = phi i8 [ %76, %74 ], [ %81, %77 ]
  %82 = tail call noundef nonnull align 8 dereferenceable(8) ptr @_ZNSo3putEc(ptr noundef nonnull align 8 dereferenceable(8) %64, i8 noundef signext %.0.i.i.i16)
  %83 = tail call noundef nonnull align 8 dereferenceable(8) ptr @_ZNSo5flushEv(ptr noundef nonnull align 8 dereferenceable(8) %82)
  %84 = add nuw i64 %.018, 1
  %85 = load ptr, ptr %6, align 8, !tbaa !11
  %86 = load ptr, ptr %3, align 8, !tbaa !4
  %87 = ptrtoint ptr %85 to i64
  %88 = ptrtoint ptr %86 to i64
  %89 = sub i64 %87, %88
  %90 = ashr exact i64 %89, 2
  %91 = icmp ult i64 %84, %90
  br i1 %91, label %45, label %._crit_edge, !llvm.loop !157
}